target datalayout = "e-m:e-p270:32:32-p271:32:32-p272:64:64-i64:64-i128:128-f80:128-n8:16:32:64-S128"
target triple = "x86_64-unknown-linux-gnu"

%class.pdecl.base = type <{ ptr, i32, i32, i32 }>
%class.pdecl = type <{ ptr, i32, i32, i32, [4 x i8] }>
%class.symbol = type { ptr }
%class.ptype = type { i32, %union.anon, %class.symbol }
%union.anon = type { ptr }
%class.paccessor_decl = type { %class.pdecl.base, %class.symbol, %class.ptype }

; Function Attrs: mustprogress nounwind uwtable
define linkonce_odr hidden void @_ZN5pdecl7inc_refEv(ptr noundef nonnull align 8 dereferenceable(20) %this) #5 comdat align 2 {
entry:
  %this.addr = alloca ptr, align 8
  store ptr %this, ptr %this.addr, align 8
  %this1 = load ptr, ptr %this.addr, align 8
  %m_ref_count = getelementptr inbounds %class.pdecl, ptr %this1, i32 0, i32 3
  %0 = load i32, ptr %m_ref_count, align 8
  %inc = add i32 %0, 1
  store i32 %inc, ptr %m_ref_count, align 8
  ret void
}

; Function Attrs: mustprogress nounwind uwtable
define linkonce_odr hidden void @_ZN5pdeclD2Ev(ptr noundef nonnull align 8 dereferenceable(20) %this) unnamed_addr #5 comdat align 2 {
entry:
  %this.addr = alloca ptr, align 8
  store ptr %this, ptr %this.addr, align 8
  ret void
}

; Function Attrs: mustprogress uwtable
define linkonce_odr hidden void @_ZN13pdecl_manager7inc_refEP5pdecl(ptr noundef nonnull align 8 dereferenceable(192) %this, ptr noundef %p) #4 comdat align 2 {
entry:
  %this.addr = alloca ptr, align 8
  %p.addr = alloca ptr, align 8
  store ptr %this, ptr %this.addr, align 8
  store ptr %p, ptr %p.addr, align 8
  %0 = load ptr, ptr %p.addr, align 8
  %tobool = icmp ne ptr %0, null
  br i1 %tobool, label %if.then, label %if.end

if.then:                                          ; preds = %entry
  %1 = load ptr, ptr %p.addr, align 8
  call void @_ZN5pdecl7inc_refEv(ptr noundef nonnull align 8 dereferenceable(20) %1)
  br label %if.end

if.end:                                           ; preds = %if.then, %entry
  ret void
}

; Function Attrs: mustprogress nounwind uwtable
define linkonce_odr hidden noundef ptr @_ZNK5ptype9get_psortEv(ptr noundef nonnull align 8 dereferenceable(24) %this) #5 comdat align 2 {
entry:
  %this.addr = alloca ptr, align 8
  store ptr %this, ptr %this.addr, align 8
  %this1 = load ptr, ptr %this.addr, align 8
  %0 = getelementptr inbounds %class.ptype, ptr %this1, i32 0, i32 1
  %1 = load ptr, ptr %0, align 8
  ret ptr %1
}

; Function Attrs: mustprogress nounwind uwtable
define linkonce_odr hidden noundef i32 @_ZNK5ptype4kindEv(ptr noundef nonnull align 8 dereferenceable(24) %this) #5 comdat align 2 {
entry:
  %this.addr = alloca ptr, align 8
  store ptr %this, ptr %this.addr, align 8
  %this1 = load ptr, ptr %this.addr, align 8
  %m_kind = getelementptr inbounds %class.ptype, ptr %this1, i32 0, i32 0
  %0 = load i32, ptr %m_kind, align 8
  ret i32 %0
}

; Function Attrs: mustprogress nounwind uwtable
define linkonce_odr hidden void @_ZN5pdeclC2Ejj(ptr noundef nonnull align 8 dereferenceable(20) %this, i32 noundef %id, i32 noundef %num_params) unnamed_addr #5 comdat align 2 {
entry:
  %this.addr = alloca ptr, align 8
  %id.addr = alloca i32, align 4
  %num_params.addr = alloca i32, align 4
  store ptr %this, ptr %this.addr, align 8
  store i32 %id, ptr %id.addr, align 4
  store i32 %num_params, ptr %num_params.addr, align 4
  %this1 = load ptr, ptr %this.addr, align 8
  store ptr getelementptr inbounds ({ [10 x ptr] }, ptr @_ZTV5pdecl, i32 0, i32 0, i32 2), ptr %this1, align 8
  %m_id = getelementptr inbounds %class.pdecl, ptr %this1, i32 0, i32 1
  %0 = load i32, ptr %id.addr, align 4
  store i32 %0, ptr %m_id, align 8
  %m_num_params = getelementptr inbounds %class.pdecl, ptr %this1, i32 0, i32 2
  %1 = load i32, ptr %num_params.addr, align 4
  store i32 %1, ptr %m_num_params, align 4
  %m_ref_count = getelementptr inbounds %class.pdecl, ptr %this1, i32 0, i32 3
  store i32 0, ptr %m_ref_count, align 8
  ret void
}

; Function Attrs: mustprogress uwtable
define hidden void @_ZN14paccessor_declC2EjjR13pdecl_managerRK6symbolRK5ptype(ptr noundef nonnull align 8 dereferenceable(56) %this, i32 noundef %id, i32 noundef %num_params, ptr noundef nonnull align 8 dereferenceable(192) %m, ptr noundef nonnull align 8 dereferenceable(8) %n, ptr noundef nonnull align 8 dereferenceable(24) %r) unnamed_addr #4 align 2 personality ptr @__gxx_personality_v0 {
entry:
  %this.addr = alloca ptr, align 8
  %id.addr = alloca i32, align 4
  %num_params.addr = alloca i32, align 4
  %m.addr = alloca ptr, align 8
  %n.addr = alloca ptr, align 8
  %r.addr = alloca ptr, align 8
  %exn.slot = alloca ptr, align 8
  %ehselector.slot = alloca i32, align 4
  store ptr %this, ptr %this.addr, align 8
  store i32 %id, ptr %id.addr, align 4
  store i32 %num_params, ptr %num_params.addr, align 4
  store ptr %m, ptr %m.addr, align 8
  store ptr %n, ptr %n.addr, align 8
  store ptr %r, ptr %r.addr, align 8
  %this1 = load ptr, ptr %this.addr, align 8
  %0 = load i32, ptr %id.addr, align 4
  %1 = load i32, ptr %num_params.addr, align 4
  call void @_ZN5pdeclC2Ejj(ptr noundef nonnull align 8 dereferenceable(20) %this1, i32 noundef %0, i32 noundef %1)
  store ptr getelementptr inbounds ({ [10 x ptr] }, ptr @_ZTV14paccessor_decl, i32 0, i32 0, i32 2), ptr %this1, align 8
  %m_name = getelementptr inbounds %class.paccessor_decl, ptr %this1, i32 0, i32 1
  %2 = load ptr, ptr %n.addr, align 8
  call void @llvm.memcpy.p0.p0.i64(ptr align 8 %m_name, ptr align 8 %2, i64 8, i1 false)
  %m_type = getelementptr inbounds %class.paccessor_decl, ptr %this1, i32 0, i32 2
  %3 = load ptr, ptr %r.addr, align 8
  call void @llvm.memcpy.p0.p0.i64(ptr align 8 %m_type, ptr align 8 %3, i64 24, i1 false)
  %m_type2 = getelementptr inbounds %class.paccessor_decl, ptr %this1, i32 0, i32 2
  %call = invoke noundef i32 @_ZNK5ptype4kindEv(ptr noundef nonnull align 8 dereferenceable(24) %m_type2)
          to label %invoke.cont unwind label %lpad

invoke.cont:                                      ; preds = %entry
  %cmp = icmp eq i32 %call, 0
  br i1 %cmp, label %if.then, label %if.end

if.then:                                          ; preds = %invoke.cont
  %4 = load ptr, ptr %m.addr, align 8
  %5 = load ptr, ptr %r.addr, align 8
  %call4 = invoke noundef ptr @_ZNK5ptype9get_psortEv(ptr noundef nonnull align 8 dereferenceable(24) %5)
          to label %invoke.cont3 unwind label %lpad

invoke.cont3:                                     ; preds = %if.then
  invoke void @_ZN13pdecl_manager7inc_refEP5pdecl(ptr noundef nonnull align 8 dereferenceable(192) %4, ptr noundef %call4)
          to label %invoke.cont5 unwind label %lpad

invoke.cont5:                                     ; preds = %invoke.cont3
  br label %if.end

lpad:                                             ; preds = %invoke.cont3, %if.then, %entry
  %6 = landingpad { ptr, i32 }
          cleanup
  %7 = extractvalue { ptr, i32 } %6, 0
  store ptr %7, ptr %exn.slot, align 8
  %8 = extractvalue { ptr, i32 } %6, 1
  store i32 %8, ptr %ehselector.slot, align 4
  call void @_ZN5pdeclD2Ev(ptr noundef nonnull align 8 dereferenceable(20) %this1) #3
  br label %eh.resume

if.end:                                           ; preds = %invoke.cont5, %invoke.cont
  ret void

eh.resume:                                        ; preds = %lpad
  %exn = load ptr, ptr %exn.slot, align 8
  %sel = load i32, ptr %ehselector.slot, align 4
  %lpad.val = insertvalue { ptr, i32 } poison, ptr %exn, 0
  %lpad.val6 = insertvalue { ptr, i32 } %lpad.val, i32 %sel, 1
  resume { ptr, i32 } %lpad.val6
}