; Function Attrs: mustprogress nofree norecurse nosync nounwind willreturn memory(readwrite, inaccessiblemem: none) uwtable
define hidden void @_ZN14paccessor_declC2EjjR13pdecl_managerRK6symbolRK5ptype(ptr nocapture noundef nonnull align 8 dereferenceable(56) %this, i32 noundef %id, i32 noundef %num_params, ptr nocapture nonnull readnone align 8 %m, ptr nocapture noundef nonnull readonly align 8 dereferenceable(8) %n, ptr nocapture noundef nonnull readonly align 8 dereferenceable(24) %r) unnamed_addr #7 align 2 personality ptr @__gxx_personality_v0 {
entry:
  %m_id.i = getelementptr inbounds i8, ptr %this, i64 8
  store i32 %id, ptr %m_id.i, align 8
  %m_num_params.i = getelementptr inbounds i8, ptr %this, i64 12
  store i32 %num_params, ptr %m_num_params.i, align 4
  %m_ref_count.i = getelementptr inbounds i8, ptr %this, i64 16
  store i32 0, ptr %m_ref_count.i, align 8
  store ptr getelementptr inbounds ({ [10 x ptr] }, ptr @_ZTV14paccessor_decl, i64 0, i32 0, i64 2), ptr %this, align 8
  %m_name = getelementptr inbounds i8, ptr %this, i64 24
  %0 = load i64, ptr %n, align 8
  store i64 %0, ptr %m_name, align 8
  %m_type = getelementptr inbounds i8, ptr %this, i64 32
  tail call void @llvm.memcpy.p0.p0.i64(ptr noundef nonnull align 8 dereferenceable(24) %m_type, ptr noundef nonnull align 8 dereferenceable(24) %r, i64 24, i1 false)
  %1 = load i32, ptr %m_type, align 8
  %cmp = icmp eq i32 %1, 0
  br i1 %cmp, label %if.then, label %if.end

if.then:                                          ; preds = %entry
  %2 = getelementptr inbounds i8, ptr %r, i64 8
  %3 = load ptr, ptr %2, align 8
  %tobool.not.i = icmp eq ptr %3, null
  br i1 %tobool.not.i, label %if.end, label %if.then.i

if.then.i:                                        ; preds = %if.then
  %m_ref_count.i.i = getelementptr inbounds i8, ptr %3, i64 16
  %4 = load i32, ptr %m_ref_count.i.i, align 8
  %inc.i.i = add i32 %4, 1
  store i32 %inc.i.i, ptr %m_ref_count.i.i, align 8
  br label %if.end

if.end:                                           ; preds = %if.then.i, %if.then, %entry
  ret void
}